target datalayout = "e-m:e-p270:32:32-p271:32:32-p272:64:64-i64:64-i128:128-f80:128-n8:16:32:64-S128"
target triple = "x86_64-pc-linux-gnu"

%"class.enki::TaskScheduler" = type <{ [3 x ptr], [3 x ptr], i32, [4 x i8], ptr, ptr, %"struct.std::atomic", %"struct.std::atomic", %"struct.std::atomic", i8, %"struct.std::atomic.0", %"struct.std::atomic.0", %"struct.std::atomic.0", i32, [4 x i8], ptr, ptr, i32, i8, [3 x i8], %"struct.enki::TaskSchedulerConfig", %"struct.std::atomic.0", [4 x i8] }>
%"struct.std::atomic" = type { %"struct.std::__atomic_base" }
%"struct.std::__atomic_base" = type { i8 }
%"struct.enki::TaskSchedulerConfig" = type { i32, i32, %"struct.enki::ProfilerCallbacks", %"struct.enki::CustomAllocator" }
%"struct.enki::ProfilerCallbacks" = type { ptr, ptr, ptr, ptr, ptr, ptr, ptr, ptr }
%"struct.enki::CustomAllocator" = type { ptr, ptr, ptr }
%"struct.std::atomic.0" = type { %"struct.std::__atomic_base.1" }
%"struct.std::__atomic_base.1" = type { i32 }
%"struct.enki::semaphoreid_t" = type { %union.sem_t }
%union.sem_t = type { i64, [24 x i8] }

@_ZN12_GLOBAL__N_17gc_FileE = internal global ptr @.str, align 8

; Function Attrs: mustprogress uwtable
define linkonce_odr dso_local void @_ZN4enki13TaskScheduler4FreeINS_13semaphoreid_tEEEvPT_PKci(ptr noundef nonnull align 8 dereferenceable(220) %0, ptr noundef %1, ptr noundef %2, i32 noundef %3) #0 comdat align 2 {
  %5 = alloca ptr, align 8
  %6 = alloca ptr, align 8
  %7 = alloca ptr, align 8
  %8 = alloca i32, align 4
  store ptr %0, ptr %5, align 8, !tbaa !4
  store ptr %1, ptr %6, align 8, !tbaa !106
  store ptr %2, ptr %7, align 8, !tbaa !59
  store i32 %3, ptr %8, align 4, !tbaa !11
  %9 = load ptr, ptr %5, align 8
  %10 = getelementptr inbounds nuw %"class.enki::TaskScheduler", ptr %9, i32 0, i32 20
  %11 = getelementptr inbounds nuw %"struct.enki::TaskSchedulerConfig", ptr %10, i32 0, i32 3
  %12 = getelementptr inbounds nuw %"struct.enki::CustomAllocator", ptr %11, i32 0, i32 1
  %13 = load ptr, ptr %12, align 8, !tbaa !122
  %14 = load ptr, ptr %6, align 8, !tbaa !106
  %15 = getelementptr inbounds nuw %"class.enki::TaskScheduler", ptr %9, i32 0, i32 20
  %16 = getelementptr inbounds nuw %"struct.enki::TaskSchedulerConfig", ptr %15, i32 0, i32 3
  %17 = getelementptr inbounds nuw %"struct.enki::CustomAllocator", ptr %16, i32 0, i32 2
  %18 = load ptr, ptr %17, align 8, !tbaa !103
  %19 = load ptr, ptr %7, align 8, !tbaa !59
  %20 = load i32, ptr %8, align 4, !tbaa !11
  call void %13(ptr noundef %14, i64 noundef 32, ptr noundef %18, ptr noundef %19, i32 noundef %20)
  ret void
}

; Function Attrs: inlinehint mustprogress nounwind uwtable
define linkonce_odr dso_local void @_ZN4enki14SemaphoreCloseERNS_13semaphoreid_tE(ptr noundef nonnull align 8 dereferenceable(32) %0) #3 comdat {
  %2 = alloca ptr, align 8
  store ptr %0, ptr %2, align 8, !tbaa !106
  %3 = load ptr, ptr %2, align 8, !tbaa !106
  %4 = getelementptr inbounds nuw %"struct.enki::semaphoreid_t", ptr %3, i32 0, i32 0
  %5 = call i32 @sem_destroy(ptr noundef %4) #14
  ret void
}

; Function Attrs: mustprogress uwtable
define dso_local void @_ZN4enki13TaskScheduler15SemaphoreDeleteEPNS_13semaphoreid_tE(ptr noundef nonnull align 8 dereferenceable(220) %0, ptr noundef %1) #0 align 2 {
  %3 = alloca ptr, align 8
  %4 = alloca ptr, align 8
  store ptr %0, ptr %3, align 8, !tbaa !4
  store ptr %1, ptr %4, align 8, !tbaa !106
  %5 = load ptr, ptr %3, align 8
  %6 = load ptr, ptr %4, align 8, !tbaa !106
  call void @_ZN4enki14SemaphoreCloseERNS_13semaphoreid_tE(ptr noundef nonnull align 8 dereferenceable(32) %6)
  %7 = load ptr, ptr %4, align 8, !tbaa !106
  %8 = load ptr, ptr @_ZN12_GLOBAL__N_17gc_FileE, align 8, !tbaa !59
  call void @_ZN4enki13TaskScheduler4FreeINS_13semaphoreid_tEEEvPT_PKci(ptr noundef nonnull align 8 dereferenceable(220) %5, ptr noundef %7, ptr noundef %8, i32 noundef 0)
  ret void
}