; Function Attrs: mustprogress uwtable
define dso_local void @_ZN4enki13TaskScheduler15SemaphoreDeleteEPNS_13semaphoreid_tE(ptr noundef nonnull readonly align 8 captures(none) dereferenceable(220) %0, ptr noundef %1) local_unnamed_addr #0 align 2 {
  %3 = tail call i32 @sem_destroy(ptr noundef nonnull align 8 dereferenceable(32) %1) #26
  %4 = getelementptr inbounds nuw i8, ptr %0, i64 200
  %5 = load ptr, ptr %4, align 8, !tbaa !107
  %6 = getelementptr inbounds nuw i8, ptr %0, i64 208
  %7 = load ptr, ptr %6, align 8, !tbaa !84
  tail call void %5(ptr noundef nonnull %1, i64 noundef 32, ptr noundef %7, ptr noundef nonnull @.str, i32 noundef 0)
  ret void
}